; Function Attrs: mustprogress uwtable
define internal fastcc void @_ZN2cvL36Compute_Determinant_Hessian_ResponseERSt6vectorINS_9EvolutionINS_3MatEEESaIS3_EE(ptr noundef nonnull align 8 dereferenceable(24) %0) unnamed_addr #3 personality ptr @__gxx_personality_v0 {
  %2 = alloca %"class.cv::utils::trace::details::Region", align 8
  %3 = alloca %"class.cv::Range", align 4
  %4 = alloca %"class.cv::DeterminantHessianResponse.42", align 8
  call void @_ZN2cv5utils5trace7details6RegionC1ERKNS3_21LocationStaticStorageE(ptr noundef nonnull align 8 dereferenceable(12) %2, ptr noundef nonnull align 8 dereferenceable(32) @_ZZN2cvL36Compute_Determinant_Hessian_ResponseERSt6vectorINS_9EvolutionINS_3MatEEESaIS3_EEE25__cv_trace_location_fn663)
  %5 = getelementptr inbounds i8, ptr %0, i64 8
  %6 = load ptr, ptr %5, align 8
  %7 = load ptr, ptr %0, align 8
  %8 = ptrtoint ptr %6 to i64
  %9 = ptrtoint ptr %7 to i64
  %10 = sub i64 %8, %9
  %11 = sdiv exact i64 %10, 520
  %12 = trunc i64 %11 to i32
  store i32 0, ptr %3, align 4
  %13 = getelementptr inbounds i8, ptr %3, i64 4
  store i32 %12, ptr %13, align 4
  store ptr getelementptr inbounds inrange(-16, 24) (i8, ptr @_ZTVN2cv26DeterminantHessianResponseINS_3MatEEE, i64 16), ptr %4, align 8
  %14 = getelementptr inbounds i8, ptr %4, i64 8
  store ptr %0, ptr %14, align 8
  invoke void @_ZN2cv13parallel_for_ERKNS_5RangeERKNS_16ParallelLoopBodyEd(ptr noundef nonnull align 4 dereferenceable(8) %3, ptr noundef nonnull align 8 dereferenceable(8) %4, double noundef -1.000000e+00)
          to label %15 unwind label %22

15:                                               ; preds = %1
  call void @_ZN2cv16ParallelLoopBodyD2Ev(ptr noundef nonnull align 8 dereferenceable(8) %4) #21
  %16 = getelementptr inbounds i8, ptr %2, i64 8
  %17 = load i32, ptr %16, align 8
  %.not.i = icmp eq i32 %17, 0
  br i1 %.not.i, label %_ZN2cv5utils5trace7details6RegionD2Ev.exit, label %18

18:                                               ; preds = %15
  invoke void @_ZN2cv5utils5trace7details6Region7destroyEv(ptr noundef nonnull align 8 dereferenceable(12) %2)
          to label %_ZN2cv5utils5trace7details6RegionD2Ev.exit unwind label %19

19:                                               ; preds = %18
  %20 = landingpad { ptr, i32 }
          catch ptr null
  %21 = extractvalue { ptr, i32 } %20, 0
  call void @__clang_call_terminate(ptr %21) #25
  unreachable

_ZN2cv5utils5trace7details6RegionD2Ev.exit:       ; preds = %15, %18
  ret void

22:                                               ; preds = %1
  %23 = landingpad { ptr, i32 }
          cleanup
  call void @_ZN2cv16ParallelLoopBodyD2Ev(ptr noundef nonnull align 8 dereferenceable(8) %4) #21
  call void @_ZN2cv5utils5trace7details6RegionD2Ev(ptr noundef nonnull align 8 dereferenceable(12) %2) #21
  resume { ptr, i32 } %23
}